target datalayout = "e-m:e-p270:32:32-p271:32:32-p272:64:64-i64:64-i128:128-f80:128-n8:16:32:64-S128"
target triple = "x86_64-pc-linux-gnu"

%"class.ceres::IterationCallback" = type { ptr }
%"class.ceres::internal::LoggingCallback" = type <{ %"class.ceres::IterationCallback", i32, i8, [3 x i8] }>

@_ZTVN5ceres17IterationCallbackE = available_externally unnamed_addr constant { [5 x ptr] } { [5 x ptr] [ptr null, ptr @_ZTIN5ceres17IterationCallbackE, ptr @_ZN5ceres17IterationCallbackD1Ev, ptr @_ZN5ceres17IterationCallbackD0Ev, ptr @__cxa_pure_virtual] }, align 8

; Function Attrs: inlinehint mustprogress nounwind uwtable
define linkonce_odr hidden void @_ZN5ceres17IterationCallbackC2Ev(ptr noundef nonnull align 8 dereferenceable(8) %0) unnamed_addr #5 comdat align 2 {
  %2 = alloca ptr, align 8
  store ptr %0, ptr %2, align 8, !tbaa !18
  %3 = load ptr, ptr %2, align 8
  store ptr getelementptr inbounds inrange(-16, 24) ({ [5 x ptr] }, ptr @_ZTVN5ceres17IterationCallbackE, i32 0, i32 0, i32 2), ptr %3, align 8, !tbaa !12
  ret void
}

; Function Attrs: mustprogress nounwind uwtable
define hidden void @_ZN5ceres8internal15LoggingCallbackC2ENS_13MinimizerTypeEb(ptr noundef nonnull align 8 dereferenceable(16) %0, i32 noundef %1, i1 noundef zeroext %2) unnamed_addr #4 align 2 {
  %4 = alloca ptr, align 8
  %5 = alloca i32, align 4
  %6 = alloca i8, align 1
  store ptr %0, ptr %4, align 8, !tbaa !36
  store i32 %1, ptr %5, align 4, !tbaa !38
  %7 = zext i1 %2 to i8
  store i8 %7, ptr %6, align 1, !tbaa !40
  %8 = load ptr, ptr %4, align 8
  call void @_ZN5ceres17IterationCallbackC2Ev(ptr noundef nonnull align 8 dereferenceable(8) %8) #3
  store ptr getelementptr inbounds inrange(-16, 24) ({ [5 x ptr] }, ptr @_ZTVN5ceres8internal15LoggingCallbackE, i32 0, i32 0, i32 2), ptr %8, align 8, !tbaa !12
  %9 = getelementptr inbounds nuw %"class.ceres::internal::LoggingCallback", ptr %8, i32 0, i32 1
  %10 = load i32, ptr %5, align 4, !tbaa !38
  store i32 %10, ptr %9, align 8, !tbaa !41
  %11 = getelementptr inbounds nuw %"class.ceres::internal::LoggingCallback", ptr %8, i32 0, i32 2
  %12 = load i8, ptr %6, align 1, !tbaa !40, !range !34, !noundef !35
  %13 = trunc i8 %12 to i1
  %14 = zext i1 %13 to i8
  store i8 %14, ptr %11, align 4, !tbaa !43
  ret void
}