; Function Attrs: mustprogress nofree norecurse nosync nounwind willreturn memory(argmem: write) uwtable
define hidden void @_ZN5ceres8internal15LoggingCallbackC2ENS_13MinimizerTypeEb(ptr noundef nonnull writeonly align 8 captures(none) dereferenceable(16) initializes((0, 13)) %0, i32 noundef %1, i1 noundef zeroext %2) unnamed_addr #3 align 2 {
  %4 = zext i1 %2 to i8
  store ptr getelementptr inbounds nuw inrange(-16, 24) (i8, ptr @_ZTVN5ceres8internal15LoggingCallbackE, i64 16), ptr %0, align 8, !tbaa !3
  %5 = getelementptr inbounds nuw i8, ptr %0, i64 8
  store i32 %1, ptr %5, align 8, !tbaa !25
  %6 = getelementptr inbounds nuw i8, ptr %0, i64 12
  store i8 %4, ptr %6, align 4, !tbaa !28
  ret void
}